Certificate:
    Data:
        Version: 3 (0x2)
        Serial Number: 16777216 (0x1000000)
    Signature Algorithm: sha1WithRSAEncryption
        Issuer: C=US, L=San Francisco, O=Tokbox, OU=Professional Services, CN=PSE Test CA *NOT FOR PRODUCTION USE*
        Validity
            Not Before: Oct 22 10:34:43 2015 GMT
            Not After : Oct 11 10:34:43 2017 GMT
        Subject: C=US, ST=California, L=San Francisco, O=Tokbox, OU=Professional Services, CN=pse001-iad.tokbox.com
        Subject Public Key Info:
            Public Key Algorithm: rsaEncryption
                Public-Key: (1024 bit)
                Modulus:
                    00:a6:7e:a5:5c:0c:61:62:dc:0d:54:76:5e:cb:b0:
                    58:09:38:3f:bf:f4:3c:3c:4d:5f:e8:c1:31:7d:bc:
                    fc:45:96:32:57:42:cb:18:7b:35:1a:f8:a2:d8:f0:
                    31:40:15:81:93:72:3b:f4:ec:43:df:2e:7d:e4:c3:
                    c4:5e:2b:a8:6f:28:00:e7:17:ab:5a:31:ad:83:35:
                    cf:d6:83:83:e1:df:a9:90:f8:83:bf:5b:e6:6e:7f:
                    63:6f:28:16:3d:87:4d:8e:7d:a8:fe:6c:7d:73:30:
                    c5:d9:3a:65:26:a3:53:db:58:db:d1:fa:80:ed:91:
                    ab:44:72:26:c1:38:d3:19:7d
                Exponent: 65537 (0x10001)
        X509v3 extensions:
            X509v3 Basic Constraints: 
                CA:FALSE
            Netscape Comment: 
                Certificate to be used only to access your test servers. It must NOT be used for anything beyond that!.
            X509v3 Subject Key Identifier: 
                22:74:95:B0:EF:0B:A2:91:BD:67:B3:C4:6A:C0:65:B3:D7:42:EE:06
            X509v3 Authority Key Identifier: 
                keyid:5E:F1:F1:D2:C3:9E:A1:C9:7D:3C:33:E4:C5:C1:6D:83:27:57:D9:FF

    Signature Algorithm: sha1WithRSAEncryption
         8a:6f:50:f6:03:36:8f:7c:1c:cb:ae:a7:a8:9f:4f:9d:ee:2a:
         95:33:30:e7:e5:60:af:38:74:05:12:bc:fa:48:29:1b:d4:30:
         37:f6:55:ca:37:4c:c6:ed:5d:29:4c:2c:07:6c:5c:ee:4f:50:
         0c:42:5e:19:92:cd:f8:1c:20:55:f0:de:aa:92:42:ff:2f:ae:
         17:86:ee:0d:6a:14:3b:f7:b4:f9:31:25:48:9a:0e:ef:b9:fa:
         1c:bc:93:98:cb:a0:4b:c3:82:a0:37:0f:5e:a1:7d:8e:b5:74:
         0b:e6:9d:3a:37:07:87:b7:86:f1:42:ff:4f:dd:a9:2d:79:18:
         72:da:46:4f:2e:f3:b0:6d:9a:ed:0a:93:7e:0e:af:13:e1:50:
         f3:2d:fb:60:52:5f:c2:be:48:39:9f:dc:8a:58:93:31:2e:f2:
         3c:14:ce:c2:57:bd:12:39:07:c8:a9:60:db:d8:69:c5:f0:35:
         0a:c0:19:ae:94:ba:fd:72:82:ed:46:a0:f9:1c:c7:31:c9:27:
         26:d0:41:1d:f4:c5:0c:16:93:68:dd:0d:7d:21:37:74:7b:1b:
         7c:82:d1:e0:b2:8a:98:ff:56:91:6e:8d:27:f5:d4:0e:d6:ea:
         54:16:4f:f1:b1:c9:67:2d:a1:28:3d:0f:62:5c:88:3d:10:02:
         d4:91:4d:ed
-----BEGIN CERTIFICATE-----
MIID0zCCArugAwIBAgIEAQAAADANBgkqhkiG9w0BAQUFADCBhTELMAkGA1UEBhMC
VVMxFjAUBgNVBAcTDVNhbiBGcmFuY2lzY28xDzANBgNVBAoTBlRva2JveDEeMBwG
A1UECxMVUHJvZmVzc2lvbmFsIFNlcnZpY2VzMS0wKwYDVQQDFCRQU0UgVGVzdCBD
QSAqTk9UIEZPUiBQUk9EVUNUSU9OIFVTRSowHhcNMTUxMDIyMTAzNDQzWhcNMTcx
MDExMTAzNDQzWjCBizELMAkGA1UEBhMCVVMxEzARBgNVBAgTCkNhbGlmb3JuaWEx
FjAUBgNVBAcTDVNhbiBGcmFuY2lzY28xDzANBgNVBAoTBlRva2JveDEeMBwGA1UE
CxMVUHJvZmVzc2lvbmFsIFNlcnZpY2VzMR4wHAYDVQQDExVwc2UwMDEtaWFkLnRv
a2JveC5jb20wgZ8wDQYJKoZIhvcNAQEBBQADgY0AMIGJAoGBAKZ+pVwMYWLcDVR2
XsuwWAk4P7/0PDxNX+jBMX28/EWWMldCyxh7NRr4otjwMUAVgZNyO/TsQ98ufeTD
xF4rqG8oAOcXq1oxrYM1z9aDg+HfqZD4g79b5m5/Y28oFj2HTY59qP5sfXMwxdk6
ZSajU9tY29H6gO2Rq0RyJsE40xl9AgMBAAGjgcYwgcMwCQYDVR0TBAIwADB2Bglg
hkgBhvhCAQ0EaRZnQ2VydGlmaWNhdGUgdG8gYmUgdXNlZCBvbmx5IHRvIGFjY2Vz
cyB5b3VyIHRlc3Qgc2VydmVycy4gSXQgbXVzdCBOT1QgYmUgdXNlZCBmb3IgYW55
dGhpbmcgYmV5b25kIHRoYXQhLjAdBgNVHQ4EFgQUInSVsO8LopG9Z7PEasBls9dC
7gYwHwYDVR0jBBgwFoAUXvHx0sOeocl9PDPkxcFtgydX2f8wDQYJKoZIhvcNAQEF
BQADggEBAIpvUPYDNo98HMuup6ifT53uKpUzMOflYK84dAUSvPpIKRvUMDf2Vco3
TMbtXSlMLAdsXO5PUAxCXhmSzfgcIFXw3qqSQv8vrheG7g1qFDv3tPkxJUiaDu+5
+hy8k5jLoEvDgqA3D16hfY61dAvmnTo3B4e3hvFC/0/dqS15GHLaRk8u87Btmu0K
k34OrxPhUPMt+2BSX8K+SDmf3IpYkzEu8jwUzsJXvRI5B8ipYNvYacXwNQrAGa6U
uv1ygu1GoPkcxzHJJybQQR30xQwWk2jdDX0hN3R7G3yC0eCyipj/VpFujSf11A7W
6lQWT/GxyWctoSg9D2JciD0QAtSRTe0=
-----END CERTIFICATE-----
